; Function Attrs: mustprogress uwtable
define void @_ZN5osgeo4proj5datum22GeodeticReferenceFrame6createERKNS0_4util11PropertyMapERKN7dropbox6oxygen2nnISt10shared_ptrINS1_9EllipsoidEEEERKNS3_8optionalINSt7__cxx1112basic_stringIcSt11char_traitsIcESaIcEEEEERKNS9_ISA_INS1_13PrimeMeridianEEEE(ptr dead_on_unwind noalias writable sret(%"class.dropbox::oxygen::nn.180") align 8 %0, ptr noundef nonnull align 8 dereferenceable(8) %1, ptr noundef nonnull align 8 dereferenceable(16) %2, ptr noundef nonnull align 8 dereferenceable(40) %3, ptr noundef nonnull align 8 dereferenceable(16) %4) local_unnamed_addr #0 align 2 personality ptr @__gxx_personality_v0 {
  tail call void @_ZN5osgeo4proj5datum22GeodeticReferenceFrame14nn_make_sharedIS2_JRKN7dropbox6oxygen2nnISt10shared_ptrINS1_9EllipsoidEEEERKNS6_IS7_INS1_13PrimeMeridianEEEEEEENS6_IS7_IT_EEEDpOT0_(ptr dead_on_unwind writable sret(%"class.dropbox::oxygen::nn.180") align 8 %0, ptr noundef nonnull align 8 dereferenceable(16) %2, ptr noundef nonnull align 8 dereferenceable(16) %4)
  %6 = load ptr, ptr %0, align 8
  %7 = getelementptr inbounds i8, ptr %6, i64 56
  %8 = load ptr, ptr %7, align 8
  %9 = load i8, ptr %3, align 8
  %10 = and i8 %9, 1
  store i8 %10, ptr %8, align 8
  %11 = getelementptr inbounds i8, ptr %8, i64 8
  %12 = getelementptr inbounds i8, ptr %3, i64 8
  %13 = invoke noundef nonnull align 8 dereferenceable(32) ptr @_ZNSt7__cxx1112basic_stringIcSt11char_traitsIcESaIcEEaSERKS4_(ptr noundef nonnull align 8 dereferenceable(32) %11, ptr noundef nonnull align 8 dereferenceable(32) %12)
          to label %_ZN5osgeo4proj5datum5Datum9setAnchorERKNS0_4util8optionalINSt7__cxx1112basic_stringIcSt11char_traitsIcESaIcEEEEE.exit unwind label %15

_ZN5osgeo4proj5datum5Datum9setAnchorERKNS0_4util8optionalINSt7__cxx1112basic_stringIcSt11char_traitsIcESaIcEEEEE.exit: ; preds = %5
  %14 = load ptr, ptr %0, align 8
  invoke void @_ZN5osgeo4proj5datum5Datum13setPropertiesERKNS0_4util11PropertyMapE(ptr noundef nonnull align 8 dereferenceable(64) %14, ptr noundef nonnull align 8 dereferenceable(8) %1)
          to label %17 unwind label %15

15:                                               ; preds = %5, %_ZN5osgeo4proj5datum5Datum9setAnchorERKNS0_4util8optionalINSt7__cxx1112basic_stringIcSt11char_traitsIcESaIcEEEEE.exit
  %16 = landingpad { ptr, i32 }
          cleanup
  tail call void @_ZN7dropbox6oxygen2nnISt10shared_ptrIN5osgeo4proj5datum22GeodeticReferenceFrameEEED2Ev(ptr noundef nonnull align 8 dereferenceable(16) %0) #26
  resume { ptr, i32 } %16

17:                                               ; preds = %_ZN5osgeo4proj5datum5Datum9setAnchorERKNS0_4util8optionalINSt7__cxx1112basic_stringIcSt11char_traitsIcESaIcEEEEE.exit
  ret void
}